Certificate:
    Data:
        Version: 3 (0x2)
        Serial Number: 4096 (0x1000)
        Signature Algorithm: sha256WithRSAEncryption
        Issuer: CN=Granian Test Client CA
        Validity
            Not Before: May 27 11:42:19 2026 GMT
            Not After : May 24 11:42:19 2036 GMT
        Subject: CN=revoked-client, O=Granian Tests
        Subject Public Key Info:
            Public Key Algorithm: rsaEncryption
                Public-Key: (2048 bit)
                Modulus:
                    00:d1:9f:6d:9e:6d:ee:38:b0:88:aa:a6:1f:a4:88:
                    f0:01:5e:2e:0d:db:a3:0c:c3:77:b7:e9:10:29:5f:
                    4e:9d:63:3d:b3:24:e3:c1:5b:b8:0e:a7:54:ac:be:
                    75:f1:40:c5:b0:68:65:ff:88:0a:1b:14:54:d5:bc:
                    55:80:04:81:a7:17:9a:4d:fa:8e:03:91:47:65:a2:
                    34:36:72:a8:d0:0d:6e:4f:c2:c1:ef:ce:a3:6e:1b:
                    b1:fb:83:b3:f7:a0:9f:63:38:b2:7c:90:8a:81:12:
                    b7:73:a6:84:a4:4e:dc:89:07:c1:32:85:74:db:22:
                    2b:75:62:a5:7a:30:ff:4e:ea:ea:e1:c2:72:59:bc:
                    9d:f1:33:34:47:14:91:6b:6d:08:da:d4:a7:6f:f5:
                    e0:a0:fb:88:cb:94:7d:7b:d7:b0:7c:d2:5d:f0:b2:
                    18:37:3c:a6:8e:d7:22:df:8e:2d:0b:d4:b9:bc:9d:
                    57:33:df:aa:28:9f:4e:b4:ee:79:67:b5:7d:d9:0c:
                    a0:59:aa:d5:9f:80:a7:8d:77:aa:15:b6:c3:72:6f:
                    f8:36:3b:ba:29:fd:12:a6:f7:2a:18:d5:ed:f8:d2:
                    e2:e6:6a:8e:5c:58:5a:83:36:d1:60:0d:2b:b2:47:
                    c3:c7:51:0c:0b:0d:a8:81:1e:b4:34:4a:b2:6a:66:
                    9e:7f
                Exponent: 65537 (0x10001)
        X509v3 extensions:
            X509v3 Extended Key Usage: 
                TLS Web Client Authentication
            X509v3 Subject Key Identifier: 
                D3:42:E8:51:FD:52:A6:00:EE:F8:FC:20:E3:A4:76:4D:55:93:8C:CB
            X509v3 Authority Key Identifier: 
                B1:14:D1:5D:08:10:4E:FB:79:87:B9:25:B8:C5:B0:BC:78:98:8C:64
    Signature Algorithm: sha256WithRSAEncryption
    Signature Value:
        4a:6b:30:a9:de:ff:d9:79:77:54:ba:bf:0c:4f:59:d1:0f:57:
        ae:34:6f:ed:a1:84:e8:2a:4c:4a:8e:5f:91:3b:ca:cf:34:d4:
        b4:ad:ab:be:fd:52:62:37:c8:8a:33:9e:c5:08:c6:b0:9a:65:
        97:88:b4:1b:6f:0e:21:28:09:f3:c9:ff:63:86:48:c1:61:7a:
        6a:56:14:c7:d7:52:36:a7:61:bd:85:70:37:0c:82:bb:11:7f:
        c9:28:b9:a2:db:5f:dc:7d:b9:b5:d0:df:98:79:1d:97:04:5b:
        25:82:fa:bf:bb:ae:bc:45:dc:6d:73:8c:d7:22:54:9a:0e:61:
        e0:b4:61:61:4d:25:91:77:b8:a0:cc:3e:29:fc:b4:a9:65:b2:
        24:93:0e:0d:04:47:70:92:e9:a1:8e:c2:f0:fd:b7:7c:89:b1:
        97:0f:6d:93:d1:bd:a9:8e:0e:59:1a:ee:4e:16:82:98:d5:6a:
        95:a7:e1:9c:ba:dc:40:79:f2:32:24:be:02:ef:24:dd:8b:5b:
        fb:1c:1a:3b:2d:fd:53:07:52:ef:2f:8b:ea:4e:8b:8c:df:05:
        87:1e:8e:d8:1b:2c:f1:19:e8:63:3b:0c:47:a3:b7:1b:7e:3d:
        36:02:07:0c:a4:49:25:58:a4:29:7b:c6:ce:14:6f:36:07:78:
        0f:57:cc:45
-----BEGIN CERTIFICATE-----
MIIDJTCCAg2gAwIBAgICEAAwDQYJKoZIhvcNAQELBQAwITEfMB0GA1UEAwwWR3Jh
bmlhbiBUZXN0IENsaWVudCBDQTAeFw0yNjA1MjcxMTQyMTlaFw0zNjA1MjQxMTQy
MTlaMDExFzAVBgNVBAMMDnJldm9rZWQtY2xpZW50MRYwFAYDVQQKDA1HcmFuaWFu
IFRlc3RzMIIBIjANBgkqhkiG9w0BAQEFAAOCAQ8AMIIBCgKCAQEA0Z9tnm3uOLCI
qqYfpIjwAV4uDdujDMN3t+kQKV9OnWM9syTjwVu4DqdUrL518UDFsGhl/4gKGxRU
1bxVgASBpxeaTfqOA5FHZaI0NnKo0A1uT8LB786jbhux+4Oz96CfYziyfJCKgRK3
c6aEpE7ciQfBMoV02yIrdWKlejD/Turq4cJyWbyd8TM0RxSRa20I2tSnb/XgoPuI
y5R9e9ewfNJd8LIYNzymjtci344tC9S5vJ1XM9+qKJ9OtO55Z7V92QygWarVn4Cn
jXeqFbbDcm/4Nju6Kf0SpvcqGNXt+NLi5mqOXFhagzbRYA0rskfDx1EMCw2ogR60
NEqyamaefwIDAQABo1cwVTATBgNVHSUEDDAKBggrBgEFBQcDAjAdBgNVHQ4EFgQU
00LoUf1SpgDu+Pwg46R2TVWTjMswHwYDVR0jBBgwFoAUsRTRXQgQTvt5h7kluMWw
vHiYjGQwDQYJKoZIhvcNAQELBQADggEBAEprMKne/9l5d1S6vwxPWdEPV640b+2h
hOgqTEqOX5E7ys801LStq779UmI3yIoznsUIxrCaZZeItBtvDiEoCfPJ/2OGSMFh
empWFMfXUjanYb2FcDcMgrsRf8kouaLbX9x9ubXQ35h5HZcEWyWC+r+7rrxF3G1z
jNciVJoOYeC0YWFNJZF3uKDMPin8tKllsiSTDg0ER3CS6aGOwvD9t3yJsZcPbZPR
vamODlka7k4WgpjVapWn4Zy63EB58jIkvgLvJN2LW/scGjst/VMHUu8vi+pOi4zf
BYcejtgbLPEZ6GM7DEejtxt+PTYCBwykSSVYpCl7xs4UbzYHeA9XzEU=
-----END CERTIFICATE-----
